target datalayout = "e-m:e-p270:32:32-p271:32:32-p272:64:64-i64:64-i128:128-f80:128-n8:16:32:64-S128"
target triple = "x86_64-pc-linux-gnu"

%struct.dtlink_s_ = type { ptr, %union.anon }
%union.anon = type { ptr }
%struct.segment = type { i8, double, %struct.paird, i32, i32, i64, i32, ptr, ptr }
%struct.paird = type { double, double }
%struct.channel = type { %struct.dtlink_s_, %struct.paird, %struct.seg_list_t, ptr, ptr }
%struct.seg_list_t = type { ptr, i64, i64, i64 }
%struct.chanItem = type { %struct.dtlink_s_, double, ptr }

@.str.7 = private unnamed_addr constant [38 x i8] c"incomparable segments !! -- Aborting\0A\00", align 1

; Function Attrs: nounwind uwtable
define internal i32 @seg_cmp(ptr noundef %0, ptr noundef %1) #0 {
  %3 = alloca i32, align 4
  %4 = alloca ptr, align 8
  %5 = alloca ptr, align 8
  store ptr %0, ptr %4, align 8, !tbaa !76
  store ptr %1, ptr %5, align 8, !tbaa !76
  %6 = load ptr, ptr %4, align 8, !tbaa !76
  %7 = getelementptr inbounds nuw %struct.segment, ptr %6, i32 0, i32 0
  %8 = load i8, ptr %7, align 8, !tbaa !136, !range !13, !noundef !14
  %9 = trunc i8 %8 to i1
  %10 = zext i1 %9 to i32
  %11 = load ptr, ptr %5, align 8, !tbaa !76
  %12 = getelementptr inbounds nuw %struct.segment, ptr %11, i32 0, i32 0
  %13 = load i8, ptr %12, align 8, !tbaa !136, !range !13, !noundef !14
  %14 = trunc i8 %13 to i1
  %15 = zext i1 %14 to i32
  %16 = icmp ne i32 %10, %15
  br i1 %16, label %25, label %17

17:                                               ; preds = %2
  %18 = load ptr, ptr %4, align 8, !tbaa !76
  %19 = getelementptr inbounds nuw %struct.segment, ptr %18, i32 0, i32 1
  %20 = load double, ptr %19, align 8, !tbaa !152
  %21 = load ptr, ptr %5, align 8, !tbaa !76
  %22 = getelementptr inbounds nuw %struct.segment, ptr %21, i32 0, i32 1
  %23 = load double, ptr %22, align 8, !tbaa !152
  %24 = fcmp une double %20, %23
  br i1 %24, label %25, label %26

25:                                               ; preds = %17, %2
  call void (ptr, ...) @agerrorf(ptr noundef @.str.7)
  store i32 -2, ptr %3, align 4
  br label %39

26:                                               ; preds = %17
  %27 = load ptr, ptr %4, align 8, !tbaa !76
  %28 = getelementptr inbounds nuw %struct.segment, ptr %27, i32 0, i32 0
  %29 = load i8, ptr %28, align 8, !tbaa !136, !range !13, !noundef !14
  %30 = trunc i8 %29 to i1
  br i1 %30, label %31, label %35

31:                                               ; preds = %26
  %32 = load ptr, ptr %4, align 8, !tbaa !76
  %33 = load ptr, ptr %5, align 8, !tbaa !76
  %34 = call i32 @segCmp(ptr noundef %32, ptr noundef %33, i32 noundef 4, i32 noundef 2)
  store i32 %34, ptr %3, align 4
  br label %39

35:                                               ; preds = %26
  %36 = load ptr, ptr %4, align 8, !tbaa !76
  %37 = load ptr, ptr %5, align 8, !tbaa !76
  %38 = call i32 @segCmp(ptr noundef %36, ptr noundef %37, i32 noundef 3, i32 noundef 1)
  store i32 %38, ptr %3, align 4
  br label %39

39:                                               ; preds = %35, %31, %25
  %40 = load i32, ptr %3, align 4
  ret i32 %40
}

; Function Attrs: inlinehint nounwind uwtable
define internal ptr @seg_list_get(ptr noundef %0, i64 noundef %1) #2 {
  %3 = alloca ptr, align 8
  %4 = alloca i64, align 8
  store ptr %0, ptr %3, align 8, !tbaa !10
  store i64 %1, ptr %4, align 8, !tbaa !27
  %5 = load ptr, ptr %3, align 8, !tbaa !10
  %6 = getelementptr inbounds nuw %struct.seg_list_t, ptr %5, i32 0, i32 0
  %7 = load ptr, ptr %6, align 8, !tbaa !168
  %8 = load ptr, ptr %3, align 8, !tbaa !10
  %9 = getelementptr inbounds nuw %struct.seg_list_t, ptr %8, i32 0, i32 1
  %10 = load i64, ptr %9, align 8, !tbaa !171
  %11 = load i64, ptr %4, align 8, !tbaa !27
  %12 = add i64 %10, %11
  %13 = load ptr, ptr %3, align 8, !tbaa !10
  %14 = getelementptr inbounds nuw %struct.seg_list_t, ptr %13, i32 0, i32 3
  %15 = load i64, ptr %14, align 8, !tbaa !172
  %16 = urem i64 %12, %15
  %17 = getelementptr inbounds nuw ptr, ptr %7, i64 %16
  %18 = load ptr, ptr %17, align 8, !tbaa !76
  ret ptr %18
}

; Function Attrs: inlinehint nounwind uwtable
define internal i64 @seg_list_size(ptr noundef %0) #2 {
  %2 = alloca ptr, align 8
  store ptr %0, ptr %2, align 8, !tbaa !10
  %3 = load ptr, ptr %2, align 8, !tbaa !10
  %4 = getelementptr inbounds nuw %struct.seg_list_t, ptr %3, i32 0, i32 2
  %5 = load i64, ptr %4, align 8, !tbaa !169
  ret i64 %5
}

; Function Attrs: nounwind uwtable
define internal i32 @add_edges_in_G(ptr noundef %0) #0 {
  %2 = alloca i32, align 4
  %3 = alloca ptr, align 8
  %4 = alloca ptr, align 8
  %5 = alloca i64, align 8
  %6 = alloca ptr, align 8
  %7 = alloca i64, align 8
  %8 = alloca i32, align 4
  %9 = alloca i64, align 8
  %10 = alloca i32, align 4
  store ptr %0, ptr %3, align 8, !tbaa !10
  call void @llvm.lifetime.start.p0(i64 8, ptr %4) #12
  %11 = load ptr, ptr %3, align 8, !tbaa !10
  %12 = getelementptr inbounds nuw %struct.channel, ptr %11, i32 0, i32 2
  store ptr %12, ptr %4, align 8, !tbaa !10
  call void @llvm.lifetime.start.p0(i64 8, ptr %5) #12
  %13 = load ptr, ptr %3, align 8, !tbaa !10
  %14 = getelementptr inbounds nuw %struct.channel, ptr %13, i32 0, i32 2
  %15 = call i64 @seg_list_size(ptr noundef %14)
  store i64 %15, ptr %5, align 8, !tbaa !27
  call void @llvm.lifetime.start.p0(i64 8, ptr %6) #12
  %16 = load ptr, ptr %3, align 8, !tbaa !10
  %17 = getelementptr inbounds nuw %struct.channel, ptr %16, i32 0, i32 3
  %18 = load ptr, ptr %17, align 8, !tbaa !165
  store ptr %18, ptr %6, align 8, !tbaa !10
  call void @llvm.lifetime.start.p0(i64 8, ptr %7) #12
  store i64 0, ptr %7, align 8, !tbaa !27
  br label %19

19:                                               ; preds = %70, %1
  %20 = load i64, ptr %7, align 8, !tbaa !27
  %21 = add i64 %20, 1
  %22 = load i64, ptr %5, align 8, !tbaa !27
  %23 = icmp ult i64 %21, %22
  br i1 %23, label %25, label %24

24:                                               ; preds = %19
  store i32 2, ptr %8, align 4
  br label %73

25:                                               ; preds = %19
  call void @llvm.lifetime.start.p0(i64 8, ptr %9) #12
  %26 = load i64, ptr %7, align 8, !tbaa !27
  %27 = add i64 %26, 1
  store i64 %27, ptr %9, align 8, !tbaa !27
  br label %28

28:                                               ; preds = %64, %25
  %29 = load i64, ptr %9, align 8, !tbaa !27
  %30 = load i64, ptr %5, align 8, !tbaa !27
  %31 = icmp ult i64 %29, %30
  br i1 %31, label %33, label %32

32:                                               ; preds = %28
  store i32 5, ptr %8, align 4
  br label %67

33:                                               ; preds = %28
  call void @llvm.lifetime.start.p0(i64 4, ptr %10) #12
  %34 = load ptr, ptr %4, align 8, !tbaa !10
  %35 = load i64, ptr %7, align 8, !tbaa !27
  %36 = call ptr @seg_list_get(ptr noundef %34, i64 noundef %35)
  %37 = load ptr, ptr %4, align 8, !tbaa !10
  %38 = load i64, ptr %9, align 8, !tbaa !27
  %39 = call ptr @seg_list_get(ptr noundef %37, i64 noundef %38)
  %40 = call i32 @seg_cmp(ptr noundef %36, ptr noundef %39)
  store i32 %40, ptr %10, align 4, !tbaa !17
  %41 = load i32, ptr %10, align 4, !tbaa !17
  %42 = icmp eq i32 %41, -2
  br i1 %42, label %43, label %44

43:                                               ; preds = %33
  store i32 -1, ptr %2, align 4
  store i32 1, ptr %8, align 4
  br label %61

44:                                               ; preds = %33
  %45 = load i32, ptr %10, align 4, !tbaa !17
  %46 = icmp sgt i32 %45, 0
  br i1 %46, label %47, label %51

47:                                               ; preds = %44
  %48 = load ptr, ptr %6, align 8, !tbaa !10
  %49 = load i64, ptr %7, align 8, !tbaa !27
  %50 = load i64, ptr %9, align 8, !tbaa !27
  call void @insert_edge(ptr noundef %48, i64 noundef %49, i64 noundef %50)
  br label %59

51:                                               ; preds = %44
  %52 = load i32, ptr %10, align 4, !tbaa !17
  %53 = icmp eq i32 %52, -1
  br i1 %53, label %54, label %58

54:                                               ; preds = %51
  %55 = load ptr, ptr %6, align 8, !tbaa !10
  %56 = load i64, ptr %9, align 8, !tbaa !27
  %57 = load i64, ptr %7, align 8, !tbaa !27
  call void @insert_edge(ptr noundef %55, i64 noundef %56, i64 noundef %57)
  br label %58

58:                                               ; preds = %54, %51
  br label %59

59:                                               ; preds = %58, %47
  br label %60

60:                                               ; preds = %59
  store i32 0, ptr %8, align 4
  br label %61

61:                                               ; preds = %60, %43
  call void @llvm.lifetime.end.p0(i64 4, ptr %10) #12
  %62 = load i32, ptr %8, align 4
  switch i32 %62, label %67 [
    i32 0, label %63
  ]

63:                                               ; preds = %61
  br label %64

64:                                               ; preds = %63
  %65 = load i64, ptr %9, align 8, !tbaa !27
  %66 = add i64 %65, 1
  store i64 %66, ptr %9, align 8, !tbaa !27
  br label %28, !llvm.loop !193

67:                                               ; preds = %61, %32
  call void @llvm.lifetime.end.p0(i64 8, ptr %9) #12
  %68 = load i32, ptr %8, align 4
  switch i32 %68, label %73 [
    i32 5, label %69
  ]

69:                                               ; preds = %67
  br label %70

70:                                               ; preds = %69
  %71 = load i64, ptr %7, align 8, !tbaa !27
  %72 = add i64 %71, 1
  store i64 %72, ptr %7, align 8, !tbaa !27
  br label %19, !llvm.loop !194

73:                                               ; preds = %67, %24
  call void @llvm.lifetime.end.p0(i64 8, ptr %7) #12
  %74 = load i32, ptr %8, align 4
  switch i32 %74, label %76 [
    i32 2, label %75
  ]

75:                                               ; preds = %73
  store i32 0, ptr %2, align 4
  store i32 1, ptr %8, align 4
  br label %76

76:                                               ; preds = %75, %73
  call void @llvm.lifetime.end.p0(i64 8, ptr %6) #12
  call void @llvm.lifetime.end.p0(i64 8, ptr %5) #12
  call void @llvm.lifetime.end.p0(i64 8, ptr %4) #12
  %77 = load i32, ptr %2, align 4
  ret i32 %77
}

; Function Attrs: inlinehint nounwind uwtable
define internal zeroext i1 @seg_list_is_empty(ptr noundef %0) #2 {
  %2 = alloca ptr, align 8
  store ptr %0, ptr %2, align 8, !tbaa !10
  %3 = load ptr, ptr %2, align 8, !tbaa !10
  %4 = call i64 @seg_list_size(ptr noundef %3)
  %5 = icmp eq i64 %4, 0
  ret i1 %5
}

; Function Attrs: nounwind uwtable
define internal i32 @add_np_edges(ptr noundef %0) #0 {
  %2 = alloca i32, align 4
  %3 = alloca ptr, align 8
  %4 = alloca ptr, align 8
  %5 = alloca ptr, align 8
  %6 = alloca ptr, align 8
  %7 = alloca ptr, align 8
  %8 = alloca i32, align 4
  store ptr %0, ptr %3, align 8, !tbaa !11
  call void @llvm.lifetime.start.p0(i64 8, ptr %4) #12
  call void @llvm.lifetime.start.p0(i64 8, ptr %5) #12
  call void @llvm.lifetime.start.p0(i64 8, ptr %6) #12
  call void @llvm.lifetime.start.p0(i64 8, ptr %7) #12
  %9 = load ptr, ptr %3, align 8, !tbaa !11
  %10 = call ptr @dtflatten(ptr noundef %9)
  store ptr %10, ptr %5, align 8, !tbaa !175
  br label %11

11:                                               ; preds = %40, %1
  %12 = load ptr, ptr %5, align 8, !tbaa !175
  %13 = icmp ne ptr %12, null
  br i1 %13, label %14, label %44

14:                                               ; preds = %11
  %15 = load ptr, ptr %5, align 8, !tbaa !175
  %16 = getelementptr inbounds nuw %struct.chanItem, ptr %15, i32 0, i32 2
  %17 = load ptr, ptr %16, align 8, !tbaa !163
  store ptr %17, ptr %4, align 8, !tbaa !11
  %18 = load ptr, ptr %4, align 8, !tbaa !11
  %19 = call ptr @dtflatten(ptr noundef %18)
  store ptr %19, ptr %6, align 8, !tbaa !175
  br label %20

20:                                               ; preds = %35, %14
  %21 = load ptr, ptr %6, align 8, !tbaa !175
  %22 = icmp ne ptr %21, null
  br i1 %22, label %23, label %39

23:                                               ; preds = %20
  %24 = load ptr, ptr %6, align 8, !tbaa !175
  store ptr %24, ptr %7, align 8, !tbaa !10
  %25 = load ptr, ptr %7, align 8, !tbaa !10
  %26 = getelementptr inbounds nuw %struct.channel, ptr %25, i32 0, i32 2
  %27 = call zeroext i1 @seg_list_is_empty(ptr noundef %26)
  br i1 %27, label %34, label %28

28:                                               ; preds = %23
  %29 = load ptr, ptr %7, align 8, !tbaa !10
  %30 = call i32 @add_edges_in_G(ptr noundef %29)
  %31 = icmp ne i32 %30, 0
  br i1 %31, label %32, label %33

32:                                               ; preds = %28
  store i32 -1, ptr %2, align 4
  store i32 1, ptr %8, align 4
  br label %45

33:                                               ; preds = %28
  br label %34

34:                                               ; preds = %33, %23
  br label %35

35:                                               ; preds = %34
  %36 = load ptr, ptr %6, align 8, !tbaa !175
  %37 = getelementptr inbounds nuw %struct.dtlink_s_, ptr %36, i32 0, i32 0
  %38 = load ptr, ptr %37, align 8, !tbaa !176
  store ptr %38, ptr %6, align 8, !tbaa !175
  br label %20, !llvm.loop !179

39:                                               ; preds = %20
  br label %40

40:                                               ; preds = %39
  %41 = load ptr, ptr %5, align 8, !tbaa !175
  %42 = getelementptr inbounds nuw %struct.dtlink_s_, ptr %41, i32 0, i32 0
  %43 = load ptr, ptr %42, align 8, !tbaa !176
  store ptr %43, ptr %5, align 8, !tbaa !175
  br label %11, !llvm.loop !180

44:                                               ; preds = %11
  store i32 0, ptr %2, align 4
  store i32 1, ptr %8, align 4
  br label %45

45:                                               ; preds = %44, %32
  call void @llvm.lifetime.end.p0(i64 8, ptr %7) #12
  call void @llvm.lifetime.end.p0(i64 8, ptr %6) #12
  call void @llvm.lifetime.end.p0(i64 8, ptr %5) #12
  call void @llvm.lifetime.end.p0(i64 8, ptr %4) #12
  %46 = load i32, ptr %2, align 4
  ret i32 %46
}