; Function Attrs: nounwind uwtable
define internal fastcc range(i32 -1, 1) i32 @add_np_edges(ptr noundef %0) unnamed_addr #0 {
  %2 = tail call ptr @dtflatten(ptr noundef %0) #18
  %.not18 = icmp eq ptr %2, null
  br i1 %.not18, label %.loopexit, label %.lr.ph21

.lr.ph21:                                         ; preds = %1, %._crit_edge
  %.01119 = phi ptr [ %51, %._crit_edge ], [ %2, %1 ]
  %3 = getelementptr inbounds nuw i8, ptr %.01119, i64 24
  %4 = load ptr, ptr %3, align 8, !tbaa !116
  %5 = tail call ptr @dtflatten(ptr noundef %4) #18
  %.not1216 = icmp eq ptr %5, null
  br i1 %.not1216, label %._crit_edge, label %.lr.ph

.lr.ph:                                           ; preds = %.lr.ph21, %add_edges_in_G.exit.thread
  %.01017 = phi ptr [ %50, %add_edges_in_G.exit.thread ], [ %5, %.lr.ph21 ]
  %6 = getelementptr inbounds nuw i8, ptr %.01017, i64 32
  %7 = getelementptr i8, ptr %.01017, i64 48
  %.val = load i64, ptr %7, align 8, !tbaa !118
  %8 = icmp eq i64 %.val, 0
  br i1 %8, label %add_edges_in_G.exit.thread, label %9

9:                                                ; preds = %.lr.ph
  %10 = getelementptr inbounds nuw i8, ptr %.01017, i64 64
  %11 = load ptr, ptr %10, align 8, !tbaa !124
  %.not3745.i.not = icmp eq i64 %.val, 1
  br i1 %.not3745.i.not, label %add_edges_in_G.exit.thread, label %.preheader.lr.ph.i

.preheader.lr.ph.i:                               ; preds = %9
  %12 = getelementptr inbounds nuw i8, ptr %.01017, i64 40
  %13 = getelementptr inbounds nuw i8, ptr %.01017, i64 56
  br label %.preheader.i

.critedge38.loopexit.i:                           ; preds = %48
  %14 = add nuw i64 %15, 1
  %exitcond48.not.i = icmp eq i64 %14, %.val
  br i1 %exitcond48.not.i, label %add_edges_in_G.exit.thread, label %.preheader.i, !llvm.loop !155

.preheader.i:                                     ; preds = %.critedge38.loopexit.i, %.preheader.lr.ph.i
  %15 = phi i64 [ 1, %.preheader.lr.ph.i ], [ %14, %.critedge38.loopexit.i ]
  %.03246.i = phi i64 [ 0, %.preheader.lr.ph.i ], [ %15, %.critedge38.loopexit.i ]
  br label %16

16:                                               ; preds = %48, %.preheader.i
  %.02844.i = phi i64 [ %15, %.preheader.i ], [ %49, %48 ]
  %17 = load ptr, ptr %6, align 8, !tbaa !122
  %18 = load i64, ptr %12, align 8, !tbaa !121
  %19 = add i64 %18, %.03246.i
  %20 = load i64, ptr %13, align 8, !tbaa !120
  %21 = urem i64 %19, %20
  %22 = getelementptr inbounds nuw ptr, ptr %17, i64 %21
  %23 = load ptr, ptr %22, align 8, !tbaa !90
  %24 = add i64 %18, %.02844.i
  %25 = urem i64 %24, %20
  %26 = getelementptr inbounds nuw ptr, ptr %17, i64 %25
  %27 = load ptr, ptr %26, align 8, !tbaa !90
  %28 = load i8, ptr %23, align 8, !tbaa !110, !range !10, !noundef !11
  %29 = trunc nuw i8 %28 to i1
  %30 = load i8, ptr %27, align 8, !tbaa !110, !range !10, !noundef !11
  %.not.i.i = icmp eq i8 %28, %30
  br i1 %.not.i.i, label %31, label %add_edges_in_G.exit

31:                                               ; preds = %16
  %32 = getelementptr inbounds nuw i8, ptr %23, i64 8
  %33 = load double, ptr %32, align 8, !tbaa !156
  %34 = getelementptr inbounds nuw i8, ptr %27, i64 8
  %35 = load double, ptr %34, align 8, !tbaa !156
  %36 = fcmp une double %33, %35
  br i1 %36, label %add_edges_in_G.exit, label %37

37:                                               ; preds = %31
  br i1 %29, label %38, label %40

38:                                               ; preds = %37
  %39 = tail call fastcc i32 @segCmp(ptr noundef nonnull readonly %23, ptr noundef nonnull readonly %27, i32 noundef 4, i32 noundef 2)
  br label %42

40:                                               ; preds = %37
  %41 = tail call fastcc i32 @segCmp(ptr noundef nonnull readonly %23, ptr noundef nonnull readonly %27, i32 noundef 3, i32 noundef 1)
  br label %42

42:                                               ; preds = %40, %38
  %.0.i.ph.i = phi i32 [ %41, %40 ], [ %39, %38 ]
  %43 = icmp sgt i32 %.0.i.ph.i, 0
  br i1 %43, label %44, label %45

44:                                               ; preds = %42
  tail call void @insert_edge(ptr noundef %11, i64 noundef %.03246.i, i64 noundef %.02844.i) #18
  br label %48

45:                                               ; preds = %42
  %46 = icmp eq i32 %.0.i.ph.i, -1
  br i1 %46, label %47, label %48

47:                                               ; preds = %45
  tail call void @insert_edge(ptr noundef %11, i64 noundef %.02844.i, i64 noundef %.03246.i) #18
  br label %48

48:                                               ; preds = %47, %45, %44
  %49 = add i64 %.02844.i, 1
  %exitcond.not.i = icmp eq i64 %49, %.val
  br i1 %exitcond.not.i, label %.critedge38.loopexit.i, label %16, !llvm.loop !157

add_edges_in_G.exit:                              ; preds = %16, %31
  tail call void (ptr, ...) @agerrorf(ptr noundef nonnull @.str.7) #18
  br label %.loopexit

add_edges_in_G.exit.thread:                       ; preds = %.critedge38.loopexit.i, %9, %.lr.ph
  %50 = load ptr, ptr %.01017, align 8, !tbaa !125
  %.not12 = icmp eq ptr %50, null
  br i1 %.not12, label %._crit_edge, label %.lr.ph, !llvm.loop !158

._crit_edge:                                      ; preds = %add_edges_in_G.exit.thread, %.lr.ph21
  %51 = load ptr, ptr %.01119, align 8, !tbaa !125
  %.not = icmp eq ptr %51, null
  br i1 %.not, label %.loopexit, label %.lr.ph21, !llvm.loop !159

.loopexit:                                        ; preds = %._crit_edge, %1, %add_edges_in_G.exit
  %.0 = phi i32 [ -1, %add_edges_in_G.exit ], [ 0, %1 ], [ 0, %._crit_edge ]
  ret i32 %.0
}